; Function Attrs: mustprogress uwtable
define noundef double @_ZNK6icu_7717RuleBasedTimeZone17getTransitionTimeEPNS_10TransitionEaii(ptr nonnull readnone align 8 captures(none) %0, ptr noundef readonly captures(none) %1, i8 noundef signext %2, i32 noundef %3, i32 noundef %4) local_unnamed_addr #1 align 2 {
  %6 = load double, ptr %1, align 8, !tbaa !39
  %.not = icmp eq i8 %2, 0
  br i1 %.not, label %46, label %7

7:                                                ; preds = %5
  %8 = getelementptr inbounds nuw i8, ptr %1, i64 8
  %9 = load ptr, ptr %8, align 8, !tbaa !42
  %10 = tail call noundef i32 @_ZNK6icu_7712TimeZoneRule12getRawOffsetEv(ptr noundef nonnull align 8 dereferenceable(80) %9)
  %11 = load ptr, ptr %8, align 8, !tbaa !42
  %12 = tail call noundef i32 @_ZNK6icu_7712TimeZoneRule13getDSTSavingsEv(ptr noundef nonnull align 8 dereferenceable(80) %11)
  %13 = getelementptr inbounds nuw i8, ptr %1, i64 16
  %14 = load ptr, ptr %13, align 8, !tbaa !43
  %15 = tail call noundef i32 @_ZNK6icu_7712TimeZoneRule12getRawOffsetEv(ptr noundef nonnull align 8 dereferenceable(80) %14)
  %16 = load ptr, ptr %13, align 8, !tbaa !43
  %17 = tail call noundef i32 @_ZNK6icu_7712TimeZoneRule13getDSTSavingsEv(ptr noundef nonnull align 8 dereferenceable(80) %16)
  %18 = add nsw i32 %12, %10
  %19 = add nsw i32 %17, %15
  %20 = icmp ne i32 %12, 0
  %21 = icmp eq i32 %17, 0
  %22 = and i1 %20, %21
  %23 = icmp eq i32 %12, 0
  %24 = icmp ne i32 %17, 0
  %25 = and i1 %23, %24
  %.not.i = icmp slt i32 %19, %18
  br i1 %.not.i, label %35, label %26

26:                                               ; preds = %7
  %27 = and i32 %3, 3
  %28 = icmp eq i32 %27, 1
  %or.cond.i = and i1 %28, %22
  br i1 %or.cond.i, label %_ZNK6icu_7717RuleBasedTimeZone13getLocalDeltaEiiiiii.exit, label %29

29:                                               ; preds = %26
  %30 = icmp eq i32 %27, 3
  %or.cond3.i = and i1 %30, %25
  br i1 %or.cond3.i, label %_ZNK6icu_7717RuleBasedTimeZone13getLocalDeltaEiiiiii.exit, label %31

31:                                               ; preds = %29
  %or.cond5.i = and i1 %28, %25
  %or.cond7.i = and i1 %30, %22
  %or.cond52.i = or i1 %or.cond5.i, %or.cond7.i
  br i1 %or.cond52.i, label %_ZNK6icu_7717RuleBasedTimeZone13getLocalDeltaEiiiiii.exit, label %32

32:                                               ; preds = %31
  %33 = and i32 %3, 12
  %34 = icmp eq i32 %33, 12
  %..i = select i1 %34, i32 %18, i32 %19
  br label %_ZNK6icu_7717RuleBasedTimeZone13getLocalDeltaEiiiiii.exit

35:                                               ; preds = %7
  %36 = and i32 %4, 3
  %37 = icmp eq i32 %36, 1
  %or.cond9.i = and i1 %37, %22
  br i1 %or.cond9.i, label %_ZNK6icu_7717RuleBasedTimeZone13getLocalDeltaEiiiiii.exit, label %38

38:                                               ; preds = %35
  %39 = icmp eq i32 %36, 3
  %or.cond11.i = and i1 %39, %25
  br i1 %or.cond11.i, label %_ZNK6icu_7717RuleBasedTimeZone13getLocalDeltaEiiiiii.exit, label %40

40:                                               ; preds = %38
  %or.cond13.i = and i1 %37, %25
  %or.cond15.i = and i1 %39, %22
  %or.cond53.i = or i1 %or.cond13.i, %or.cond15.i
  br i1 %or.cond53.i, label %_ZNK6icu_7717RuleBasedTimeZone13getLocalDeltaEiiiiii.exit, label %41

41:                                               ; preds = %40
  %42 = and i32 %4, 12
  %43 = icmp eq i32 %42, 4
  %.54.i = select i1 %43, i32 %18, i32 %19
  br label %_ZNK6icu_7717RuleBasedTimeZone13getLocalDeltaEiiiiii.exit

_ZNK6icu_7717RuleBasedTimeZone13getLocalDeltaEiiiiii.exit: ; preds = %26, %29, %31, %32, %35, %38, %40, %41
  %.0.i = phi i32 [ %18, %29 ], [ %18, %26 ], [ %19, %31 ], [ %..i, %32 ], [ %19, %38 ], [ %19, %35 ], [ %18, %40 ], [ %.54.i, %41 ]
  %44 = sitofp i32 %.0.i to double
  %45 = fadd double %6, %44
  br label %46

46:                                               ; preds = %_ZNK6icu_7717RuleBasedTimeZone13getLocalDeltaEiiiiii.exit, %5
  %.0 = phi double [ %45, %_ZNK6icu_7717RuleBasedTimeZone13getLocalDeltaEiiiiii.exit ], [ %6, %5 ]
  ret double %.0
}